; Function Attrs: mustprogress nounwind uwtable
define dso_local void @_ZN13Probabilities12clear_filterERSt3mapI8ProbNameP6FilterSt4lessIS1_ESaISt4pairIKS1_S3_EEE(ptr nocapture noundef nonnull readnone align 8 dereferenceable(288) %0, ptr noundef nonnull align 8 dereferenceable(48) %1) local_unnamed_addr #4 align 2 personality ptr @__gxx_personality_v0 {
  %3 = getelementptr inbounds i8, ptr %1, i64 24
  %4 = load ptr, ptr %3, align 8
  %5 = getelementptr inbounds i8, ptr %1, i64 8
  %.not89 = icmp eq ptr %4, %5
  br i1 %.not89, label %._crit_edge, label %.lr.ph

.lr.ph:                                           ; preds = %2, %12
  %.sroa.05.010 = phi ptr [ %13, %12 ], [ %4, %2 ]
  %6 = getelementptr inbounds i8, ptr %.sroa.05.010, i64 40
  %7 = load ptr, ptr %6, align 8
  %.not = icmp eq ptr %7, null
  br i1 %.not, label %12, label %8

8:                                                ; preds = %.lr.ph
  %9 = load ptr, ptr %7, align 8
  %10 = getelementptr inbounds i8, ptr %9, i64 8
  %11 = load ptr, ptr %10, align 8
  tail call void %11(ptr noundef nonnull align 8 dereferenceable(16) %7) #22
  br label %12

12:                                               ; preds = %.lr.ph, %8
  %13 = tail call noundef ptr @_ZSt18_Rb_tree_incrementPSt18_Rb_tree_node_base(ptr noundef nonnull %.sroa.05.010) #24
  %.not8 = icmp eq ptr %13, %5
  br i1 %.not8, label %._crit_edge, label %.lr.ph, !llvm.loop !43

._crit_edge:                                      ; preds = %12, %2
  %14 = getelementptr inbounds i8, ptr %1, i64 16
  %15 = load ptr, ptr %14, align 8
  invoke void @_ZNSt8_Rb_treeI8ProbNameSt4pairIKS0_P6FilterESt10_Select1stIS5_ESt4lessIS0_ESaIS5_EE8_M_eraseEPSt13_Rb_tree_nodeIS5_E(ptr noundef nonnull align 8 dereferenceable(48) %1, ptr noundef %15)
          to label %_ZNSt3mapI8ProbNameP6FilterSt4lessIS0_ESaISt4pairIKS0_S2_EEE5clearEv.exit unwind label %16

16:                                               ; preds = %._crit_edge
  %17 = landingpad { ptr, i32 }
          catch ptr null
  %18 = extractvalue { ptr, i32 } %17, 0
  tail call void @__clang_call_terminate(ptr %18) #26
  unreachable

_ZNSt3mapI8ProbNameP6FilterSt4lessIS0_ESaISt4pairIKS0_S2_EEE5clearEv.exit: ; preds = %._crit_edge
  store ptr null, ptr %14, align 8
  store ptr %5, ptr %3, align 8
  %19 = getelementptr inbounds i8, ptr %1, i64 32
  store ptr %5, ptr %19, align 8
  %20 = getelementptr inbounds i8, ptr %1, i64 40
  store i64 0, ptr %20, align 8
  ret void
}